; Function Attrs: nounwind uwtable
define internal ptr @unicode_getdefaultencoding(ptr readnone captures(none) %0, ptr readnone captures(none) %1) #0 {
  %3 = tail call ptr @PyUnicode_GetDefaultEncoding() #4
  %4 = icmp eq ptr %3, null
  br i1 %4, label %7, label %5

5:                                                ; preds = %2
  %6 = tail call ptr @PyBytes_FromString(ptr noundef nonnull %3) #4
  br label %7

7:                                                ; preds = %2, %5
  %.0 = phi ptr [ %6, %5 ], [ null, %2 ]
  ret ptr %.0
}